target datalayout = "e-m:e-p270:32:32-p271:32:32-p272:64:64-i64:64-i128:128-f80:128-n8:16:32:64-S128"
target triple = "x86_64-pc-linux-gnu"

%union.pthread_mutex_t = type { %struct.__pthread_mutex_s }
%struct.__pthread_mutex_s = type { i32, i32, i32, i32, i32, i16, i16, %struct.__pthread_internal_list }
%struct.__pthread_internal_list = type { ptr, ptr }
%union.pthread_cond_t = type { %struct.__pthread_cond_s }
%struct.__pthread_cond_s = type { %union.__atomic_wide_counter, %union.__atomic_wide_counter, [2 x i32], [2 x i32], i32, i32, [2 x i32] }
%union.__atomic_wide_counter = type { i64 }

@power_save_started = dso_local global i8 0, align 1
@resume_job_list = dso_local global ptr null, align 8
@power_mutex = internal global %union.pthread_mutex_t zeroinitializer, align 8
@.str.7 = private unnamed_addr constant [29 x i8] c"%s: pthread_mutex_lock(): %m\00", align 1
@power_cond = internal global %union.pthread_cond_t zeroinitializer, align 8
@.str.10 = private unnamed_addr constant [36 x i8] c"%s:%d %s: pthread_cond_signal(): %m\00", align 1
@.str.11 = private unnamed_addr constant [13 x i8] c"power_save.c\00", align 1
@.str.12 = private unnamed_addr constant [31 x i8] c"%s: pthread_mutex_unlock(): %m\00", align 1
@power_thread = internal global i64 0, align 8
@.str.13 = private unnamed_addr constant [23 x i8] c"%s: pthread_join(): %m\00", align 1
@__func__.power_save_fini = private unnamed_addr constant [16 x i8] c"power_save_fini\00", align 1

; Function Attrs: nounwind uwtable
define dso_local void @power_save_fini() #0 {
  %1 = alloca i32, align 4
  %2 = alloca i32, align 4
  %3 = alloca i32, align 4
  %4 = alloca i32, align 4
  br label %5

5:                                                ; preds = %0
  call void @llvm.lifetime.start.p0(i64 4, ptr %1) #9
  %6 = call i32 @pthread_cond_signal(ptr noundef @power_cond) #9
  store i32 %6, ptr %1, align 4
  %7 = load i32, ptr %1, align 4
  %8 = icmp ne i32 %7, 0
  br i1 %8, label %9, label %13

9:                                                ; preds = %5
  %10 = load i32, ptr %1, align 4
  %11 = call ptr @__errno_location() #11
  store i32 %10, ptr %11, align 4
  %12 = call i32 (ptr, ...) @error(ptr noundef @.str.10, ptr noundef @.str.11, i32 noundef 1180, ptr noundef @__func__.power_save_fini)
  br label %13

13:                                               ; preds = %9, %5
  call void @llvm.lifetime.end.p0(i64 4, ptr %1) #9
  br label %14

14:                                               ; preds = %13
  br label %15

15:                                               ; preds = %14
  call void @llvm.lifetime.start.p0(i64 4, ptr %2) #9
  store i32 0, ptr %2, align 4
  %16 = load i64, ptr @power_thread, align 8
  %17 = icmp ne i64 %16, 0
  br i1 %17, label %18, label %21

18:                                               ; preds = %15
  %19 = load i64, ptr @power_thread, align 8
  %20 = call i32 @pthread_join(i64 noundef %19, ptr noundef null)
  store i32 %20, ptr %2, align 4
  store i64 0, ptr @power_thread, align 8
  br label %21

21:                                               ; preds = %18, %15
  %22 = load i32, ptr %2, align 4
  %23 = icmp ne i32 %22, 0
  br i1 %23, label %24, label %28

24:                                               ; preds = %21
  %25 = load i32, ptr %2, align 4
  %26 = call ptr @__errno_location() #11
  store i32 %25, ptr %26, align 4
  %27 = call i32 (ptr, ...) @error(ptr noundef @.str.13, ptr noundef @__func__.power_save_fini)
  br label %28

28:                                               ; preds = %24, %21
  call void @llvm.lifetime.end.p0(i64 4, ptr %2) #9
  br label %29

29:                                               ; preds = %28
  br label %30

30:                                               ; preds = %29
  call void @llvm.lifetime.start.p0(i64 4, ptr %3) #9
  %31 = call i32 @pthread_mutex_lock(ptr noundef @power_mutex) #9
  store i32 %31, ptr %3, align 4
  %32 = load i32, ptr %3, align 4
  %33 = icmp ne i32 %32, 0
  br i1 %33, label %34, label %37

34:                                               ; preds = %30
  %35 = load i32, ptr %3, align 4
  %36 = call ptr @__errno_location() #11
  store i32 %35, ptr %36, align 4
  call void (ptr, ...) @fatal_abort(ptr noundef @.str.7, ptr noundef @__func__.power_save_fini) #12
  unreachable

37:                                               ; preds = %30
  call void @llvm.lifetime.end.p0(i64 4, ptr %3) #9
  br label %38

38:                                               ; preds = %37
  %39 = load i8, ptr @power_save_started, align 1, !range !11, !noundef !12
  %40 = trunc i8 %39 to i1
  br i1 %40, label %41, label %49

41:                                               ; preds = %38
  store i8 0, ptr @power_save_started, align 1
  br label %42

42:                                               ; preds = %41
  %43 = load ptr, ptr @resume_job_list, align 8
  %44 = icmp ne ptr %43, null
  br i1 %44, label %45, label %47

45:                                               ; preds = %42
  %46 = load ptr, ptr @resume_job_list, align 8
  call void @list_destroy(ptr noundef %46)
  br label %47

47:                                               ; preds = %45, %42
  store ptr null, ptr @resume_job_list, align 8
  br label %48

48:                                               ; preds = %47
  br label %49

49:                                               ; preds = %48, %38
  br label %50

50:                                               ; preds = %49
  call void @llvm.lifetime.start.p0(i64 4, ptr %4) #9
  %51 = call i32 @pthread_mutex_unlock(ptr noundef @power_mutex) #9
  store i32 %51, ptr %4, align 4
  %52 = load i32, ptr %4, align 4
  %53 = icmp ne i32 %52, 0
  br i1 %53, label %54, label %57

54:                                               ; preds = %50
  %55 = load i32, ptr %4, align 4
  %56 = call ptr @__errno_location() #11
  store i32 %55, ptr %56, align 4
  call void (ptr, ...) @fatal_abort(ptr noundef @.str.12, ptr noundef @__func__.power_save_fini) #12
  unreachable

57:                                               ; preds = %50
  call void @llvm.lifetime.end.p0(i64 4, ptr %4) #9
  br label %58

58:                                               ; preds = %57
  ret void
}