; Function Attrs: nounwind uwtable
define dso_local void @power_save_fini() local_unnamed_addr #0 {
  %1 = tail call i32 @pthread_cond_signal(ptr noundef nonnull @power_cond) #12
  %.not = icmp eq i32 %1, 0
  br i1 %.not, label %5, label %2

2:                                                ; preds = %0
  %3 = tail call ptr @__errno_location() #14
  store i32 %1, ptr %3, align 4
  %4 = tail call i32 (ptr, ...) @error(ptr noundef nonnull @.str.10, ptr noundef nonnull @.str.11, i32 noundef 1180, ptr noundef nonnull @__func__.power_save_fini) #12
  br label %5

5:                                                ; preds = %2, %0
  %6 = load i64, ptr @power_thread, align 8
  %.not13 = icmp eq i64 %6, 0
  br i1 %.not13, label %.thread, label %7

7:                                                ; preds = %5
  %8 = tail call i32 @pthread_join(i64 noundef %6, ptr noundef null) #12
  store i64 0, ptr @power_thread, align 8
  %.not14 = icmp eq i32 %8, 0
  br i1 %.not14, label %.thread, label %9

9:                                                ; preds = %7
  %10 = tail call ptr @__errno_location() #14
  store i32 %8, ptr %10, align 4
  %11 = tail call i32 (ptr, ...) @error(ptr noundef nonnull @.str.13, ptr noundef nonnull @__func__.power_save_fini) #12
  br label %.thread

.thread:                                          ; preds = %5, %9, %7
  %12 = tail call i32 @pthread_mutex_lock(ptr noundef nonnull @power_mutex) #12
  %.not15 = icmp eq i32 %12, 0
  br i1 %.not15, label %15, label %13

13:                                               ; preds = %.thread
  %14 = tail call ptr @__errno_location() #14
  store i32 %12, ptr %14, align 4
  tail call void (ptr, ...) @fatal_abort(ptr noundef nonnull @.str.7, ptr noundef nonnull @__func__.power_save_fini) #15
  unreachable

15:                                               ; preds = %.thread
  %16 = load i8, ptr @power_save_started, align 1, !range !13, !noundef !14
  %17 = trunc nuw i8 %16 to i1
  br i1 %17, label %18, label %22

18:                                               ; preds = %15
  store i8 0, ptr @power_save_started, align 1
  %19 = load ptr, ptr @resume_job_list, align 8
  %.not16 = icmp eq ptr %19, null
  br i1 %.not16, label %21, label %20

20:                                               ; preds = %18
  tail call void @list_destroy(ptr noundef nonnull %19) #12
  br label %21

21:                                               ; preds = %20, %18
  store ptr null, ptr @resume_job_list, align 8
  br label %22

22:                                               ; preds = %15, %21
  %23 = tail call i32 @pthread_mutex_unlock(ptr noundef nonnull @power_mutex) #12
  %.not17 = icmp eq i32 %23, 0
  br i1 %.not17, label %26, label %24

24:                                               ; preds = %22
  %25 = tail call ptr @__errno_location() #14
  store i32 %23, ptr %25, align 4
  tail call void (ptr, ...) @fatal_abort(ptr noundef nonnull @.str.12, ptr noundef nonnull @__func__.power_save_fini) #15
  unreachable

26:                                               ; preds = %22
  ret void
}